target datalayout = "e-m:e-p270:32:32-p271:32:32-p272:64:64-i64:64-i128:128-f80:128-n8:16:32:64-S128"
target triple = "x86_64-pc-linux-gnu"

%union.pthread_mutex_t = type { %struct.__pthread_mutex_s }
%struct.__pthread_mutex_s = type { i32, i32, i32, i32, i32, i16, i16, %struct.__pthread_internal_list }
%struct.__pthread_internal_list = type { ptr, ptr }
%union.pthread_cond_t = type { %struct.__pthread_cond_s }
%struct.__pthread_cond_s = type { %union.__atomic_wide_counter, %union.__atomic_wide_counter, [2 x i32], [2 x i32], i32, i32, [2 x i32] }
%union.__atomic_wide_counter = type { i64 }

@shutdown_time = dso_local global i64 0, align 8
@registered_lock = dso_local global %union.pthread_mutex_t zeroinitializer, align 8
@commit_handler_thread = internal global i64 0, align 8
@backup = external global i8, align 1
@rollup_handler_thread = internal global i64 0, align 8
@primary_resumed = external global i8, align 1
@restart_backup = internal global i8 0, align 1
@.str.22 = private unnamed_addr constant [29 x i8] c"%s: pthread_mutex_lock(): %m\00", align 1
@.str.23 = private unnamed_addr constant [31 x i8] c"%s: pthread_mutex_unlock(): %m\00", align 1
@shutdown_threads.shutdown_mutex = internal global %union.pthread_mutex_t zeroinitializer, align 8
@__func__.shutdown_threads = private unnamed_addr constant [17 x i8] c"shutdown_threads\00", align 1
@.str.24 = private unnamed_addr constant [51 x i8] c"There is already a shutdown operation in progress.\00", align 1
@.str.25 = private unnamed_addr constant [37 x i8] c"Waiting for commit thread to finish.\00", align 1
@rollup_lock = internal global %union.pthread_mutex_t zeroinitializer, align 8
@.str.26 = private unnamed_addr constant [30 x i8] c"Hard cancelling rollup thread\00", align 1
@.str.27 = private unnamed_addr constant [37 x i8] c"Waiting for rollup thread to finish.\00", align 1
@rollup_handler_cond = internal global %union.pthread_cond_t zeroinitializer, align 8
@.str.28 = private unnamed_addr constant [36 x i8] c"%s:%d %s: pthread_cond_signal(): %m\00", align 1
@.str.29 = private unnamed_addr constant [11 x i8] c"slurmdbd.c\00", align 1

; Function Attrs: nounwind uwtable
define dso_local void @shutdown_threads() #0 {
  %1 = alloca i32, align 4
  %2 = alloca i32, align 4
  %3 = alloca i32, align 4
  %4 = alloca i32, align 4
  %5 = alloca i32, align 4
  %6 = alloca i32, align 4
  %7 = alloca i32, align 4
  %8 = alloca i32, align 4
  br label %9

9:                                                ; preds = %0
  call void @llvm.lifetime.start.p0(i64 4, ptr %1) #10
  %10 = call i32 @pthread_mutex_lock(ptr noundef @shutdown_threads.shutdown_mutex) #10
  store i32 %10, ptr %1, align 4
  %11 = load i32, ptr %1, align 4
  %12 = icmp ne i32 %11, 0
  br i1 %12, label %13, label %16

13:                                               ; preds = %9
  %14 = load i32, ptr %1, align 4
  %15 = call ptr @__errno_location() #13
  store i32 %14, ptr %15, align 4
  call void (ptr, ...) @fatal_abort(ptr noundef @.str.22, ptr noundef @__func__.shutdown_threads) #12
  unreachable

16:                                               ; preds = %9
  call void @llvm.lifetime.end.p0(i64 4, ptr %1) #10
  br label %17

17:                                               ; preds = %16
  %18 = load i64, ptr @shutdown_time, align 8
  %19 = icmp ne i64 %18, 0
  br i1 %19, label %20, label %38

20:                                               ; preds = %17
  br label %21

21:                                               ; preds = %20
  br label %22

22:                                               ; preds = %21
  %23 = call i32 @get_log_level()
  %24 = icmp sge i32 %23, 5
  br i1 %24, label %25, label %26

25:                                               ; preds = %22
  call void (i32, ptr, ...) @log_var(i32 noundef 5, ptr noundef @.str.24)
  br label %26

26:                                               ; preds = %25, %22
  br label %27

27:                                               ; preds = %26
  br label %28

28:                                               ; preds = %27
  br label %29

29:                                               ; preds = %28
  call void @llvm.lifetime.start.p0(i64 4, ptr %2) #10
  %30 = call i32 @pthread_mutex_unlock(ptr noundef @shutdown_threads.shutdown_mutex) #10
  store i32 %30, ptr %2, align 4
  %31 = load i32, ptr %2, align 4
  %32 = icmp ne i32 %31, 0
  br i1 %32, label %33, label %36

33:                                               ; preds = %29
  %34 = load i32, ptr %2, align 4
  %35 = call ptr @__errno_location() #13
  store i32 %34, ptr %35, align 4
  call void (ptr, ...) @fatal_abort(ptr noundef @.str.23, ptr noundef @__func__.shutdown_threads) #12
  unreachable

36:                                               ; preds = %29
  call void @llvm.lifetime.end.p0(i64 4, ptr %2) #10
  br label %37

37:                                               ; preds = %36
  br label %155

38:                                               ; preds = %17
  %39 = call i64 @time(ptr noundef null) #10
  store i64 %39, ptr @shutdown_time, align 8
  br label %40

40:                                               ; preds = %38
  call void @llvm.lifetime.start.p0(i64 4, ptr %3) #10
  %41 = call i32 @pthread_mutex_unlock(ptr noundef @shutdown_threads.shutdown_mutex) #10
  store i32 %41, ptr %3, align 4
  %42 = load i32, ptr %3, align 4
  %43 = icmp ne i32 %42, 0
  br i1 %43, label %44, label %47

44:                                               ; preds = %40
  %45 = load i32, ptr %3, align 4
  %46 = call ptr @__errno_location() #13
  store i32 %45, ptr %46, align 4
  call void (ptr, ...) @fatal_abort(ptr noundef @.str.23, ptr noundef @__func__.shutdown_threads) #12
  unreachable

47:                                               ; preds = %40
  call void @llvm.lifetime.end.p0(i64 4, ptr %3) #10
  br label %48

48:                                               ; preds = %47
  %49 = load i64, ptr @commit_handler_thread, align 8
  %50 = icmp ne i64 %49, 0
  br i1 %50, label %51, label %84

51:                                               ; preds = %48
  %52 = call i32 @pthread_mutex_trylock(ptr noundef @registered_lock) #10
  %53 = icmp eq i32 %52, 16
  br i1 %53, label %54, label %72

54:                                               ; preds = %51
  br label %55

55:                                               ; preds = %54
  br label %56

56:                                               ; preds = %55
  %57 = call i32 @get_log_level()
  %58 = icmp sge i32 %57, 5
  br i1 %58, label %59, label %60

59:                                               ; preds = %56
  call void (i32, ptr, ...) @log_var(i32 noundef 5, ptr noundef @.str.25)
  br label %60

60:                                               ; preds = %59, %56
  br label %61

61:                                               ; preds = %60
  br label %62

62:                                               ; preds = %61
  br label %63

63:                                               ; preds = %62
  call void @llvm.lifetime.start.p0(i64 4, ptr %4) #10
  %64 = call i32 @pthread_mutex_lock(ptr noundef @registered_lock) #10
  store i32 %64, ptr %4, align 4
  %65 = load i32, ptr %4, align 4
  %66 = icmp ne i32 %65, 0
  br i1 %66, label %67, label %70

67:                                               ; preds = %63
  %68 = load i32, ptr %4, align 4
  %69 = call ptr @__errno_location() #13
  store i32 %68, ptr %69, align 4
  call void (ptr, ...) @fatal_abort(ptr noundef @.str.22, ptr noundef @__func__.shutdown_threads) #12
  unreachable

70:                                               ; preds = %63
  call void @llvm.lifetime.end.p0(i64 4, ptr %4) #10
  br label %71

71:                                               ; preds = %70
  br label %72

72:                                               ; preds = %71, %51
  %73 = load i64, ptr @commit_handler_thread, align 8
  %74 = call i32 @pthread_cancel(i64 noundef %73)
  br label %75

75:                                               ; preds = %72
  call void @llvm.lifetime.start.p0(i64 4, ptr %5) #10
  %76 = call i32 @pthread_mutex_unlock(ptr noundef @registered_lock) #10
  store i32 %76, ptr %5, align 4
  %77 = load i32, ptr %5, align 4
  %78 = icmp ne i32 %77, 0
  br i1 %78, label %79, label %82

79:                                               ; preds = %75
  %80 = load i32, ptr %5, align 4
  %81 = call ptr @__errno_location() #13
  store i32 %80, ptr %81, align 4
  call void (ptr, ...) @fatal_abort(ptr noundef @.str.23, ptr noundef @__func__.shutdown_threads) #12
  unreachable

82:                                               ; preds = %75
  call void @llvm.lifetime.end.p0(i64 4, ptr %5) #10
  br label %83

83:                                               ; preds = %82
  br label %84

84:                                               ; preds = %83, %48
  call void @rpc_mgr_wake()
  %85 = load i64, ptr @rollup_handler_thread, align 8
  %86 = icmp ne i64 %85, 0
  br i1 %86, label %87, label %154

87:                                               ; preds = %84
  %88 = call i32 @pthread_mutex_trylock(ptr noundef @rollup_lock) #10
  %89 = icmp eq i32 %88, 16
  br i1 %89, label %90, label %124

90:                                               ; preds = %87
  %91 = load i8, ptr @backup, align 1, !range !8, !noundef !9
  %92 = trunc i8 %91 to i1
  br i1 %92, label %93, label %105

93:                                               ; preds = %90
  %94 = load i8, ptr @primary_resumed, align 1, !range !8, !noundef !9
  %95 = trunc i8 %94 to i1
  br i1 %95, label %96, label %105

96:                                               ; preds = %93
  br label %97

97:                                               ; preds = %96
  br label %98

98:                                               ; preds = %97
  %99 = call i32 @get_log_level()
  %100 = icmp sge i32 %99, 5
  br i1 %100, label %101, label %102

101:                                              ; preds = %98
  call void (i32, ptr, ...) @log_var(i32 noundef 5, ptr noundef @.str.26)
  br label %102

102:                                              ; preds = %101, %98
  br label %103

103:                                              ; preds = %102
  br label %104

104:                                              ; preds = %103
  store i8 1, ptr @restart_backup, align 1
  br label %123

105:                                              ; preds = %93, %90
  br label %106

106:                                              ; preds = %105
  br label %107

107:                                              ; preds = %106
  %108 = call i32 @get_log_level()
  %109 = icmp sge i32 %108, 5
  br i1 %109, label %110, label %111

110:                                              ; preds = %107
  call void (i32, ptr, ...) @log_var(i32 noundef 5, ptr noundef @.str.27)
  br label %111

111:                                              ; preds = %110, %107
  br label %112

112:                                              ; preds = %111
  br label %113

113:                                              ; preds = %112
  br label %114

114:                                              ; preds = %113
  call void @llvm.lifetime.start.p0(i64 4, ptr %6) #10
  %115 = call i32 @pthread_mutex_lock(ptr noundef @rollup_lock) #10
  store i32 %115, ptr %6, align 4
  %116 = load i32, ptr %6, align 4
  %117 = icmp ne i32 %116, 0
  br i1 %117, label %118, label %121

118:                                              ; preds = %114
  %119 = load i32, ptr %6, align 4
  %120 = call ptr @__errno_location() #13
  store i32 %119, ptr %120, align 4
  call void (ptr, ...) @fatal_abort(ptr noundef @.str.22, ptr noundef @__func__.shutdown_threads) #12
  unreachable

121:                                              ; preds = %114
  call void @llvm.lifetime.end.p0(i64 4, ptr %6) #10
  br label %122

122:                                              ; preds = %121
  br label %123

123:                                              ; preds = %122, %104
  br label %124

124:                                              ; preds = %123, %87
  %125 = load i8, ptr @backup, align 1, !range !8, !noundef !9
  %126 = trunc i8 %125 to i1
  br i1 %126, label %127, label %133

127:                                              ; preds = %124
  %128 = load i8, ptr @primary_resumed, align 1, !range !8, !noundef !9
  %129 = trunc i8 %128 to i1
  br i1 %129, label %130, label %133

130:                                              ; preds = %127
  %131 = load i64, ptr @rollup_handler_thread, align 8
  %132 = call i32 @pthread_cancel(i64 noundef %131)
  br label %144

133:                                              ; preds = %127, %124
  br label %134

134:                                              ; preds = %133
  call void @llvm.lifetime.start.p0(i64 4, ptr %7) #10
  %135 = call i32 @pthread_cond_signal(ptr noundef @rollup_handler_cond) #10
  store i32 %135, ptr %7, align 4
  %136 = load i32, ptr %7, align 4
  %137 = icmp ne i32 %136, 0
  br i1 %137, label %138, label %142

138:                                              ; preds = %134
  %139 = load i32, ptr %7, align 4
  %140 = call ptr @__errno_location() #13
  store i32 %139, ptr %140, align 4
  %141 = call i32 (ptr, ...) @error(ptr noundef @.str.28, ptr noundef @.str.29, i32 noundef 526, ptr noundef @__func__.shutdown_threads)
  br label %142

142:                                              ; preds = %138, %134
  call void @llvm.lifetime.end.p0(i64 4, ptr %7) #10
  br label %143

143:                                              ; preds = %142
  br label %144

144:                                              ; preds = %143, %130
  br label %145

145:                                              ; preds = %144
  call void @llvm.lifetime.start.p0(i64 4, ptr %8) #10
  %146 = call i32 @pthread_mutex_unlock(ptr noundef @rollup_lock) #10
  store i32 %146, ptr %8, align 4
  %147 = load i32, ptr %8, align 4
  %148 = icmp ne i32 %147, 0
  br i1 %148, label %149, label %152

149:                                              ; preds = %145
  %150 = load i32, ptr %8, align 4
  %151 = call ptr @__errno_location() #13
  store i32 %150, ptr %151, align 4
  call void (ptr, ...) @fatal_abort(ptr noundef @.str.23, ptr noundef @__func__.shutdown_threads) #12
  unreachable

152:                                              ; preds = %145
  call void @llvm.lifetime.end.p0(i64 4, ptr %8) #10
  br label %153

153:                                              ; preds = %152
  br label %154

154:                                              ; preds = %153, %84
  call void @conmgr_request_shutdown()
  br label %155

155:                                              ; preds = %154, %37
  ret void
}