; Function Attrs: nounwind uwtable
define dso_local void @shutdown_threads() local_unnamed_addr #0 {
  %1 = tail call i32 @pthread_mutex_lock(ptr noundef nonnull @shutdown_threads.shutdown_mutex) #14
  %.not = icmp eq i32 %1, 0
  br i1 %.not, label %4, label %2

2:                                                ; preds = %0
  %3 = tail call ptr @__errno_location() #18
  store i32 %1, ptr %3, align 4
  tail call void (ptr, ...) @fatal_abort(ptr noundef nonnull @.str.22, ptr noundef nonnull @__func__.shutdown_threads) #16
  unreachable

4:                                                ; preds = %0
  %5 = load i64, ptr @shutdown_time, align 8
  %.not23 = icmp eq i64 %5, 0
  br i1 %.not23, label %14, label %6

6:                                                ; preds = %4
  %7 = tail call i32 @get_log_level() #14
  %8 = icmp sgt i32 %7, 4
  br i1 %8, label %9, label %10

9:                                                ; preds = %6
  tail call void (i32, ptr, ...) @log_var(i32 noundef 5, ptr noundef nonnull @.str.24) #14
  br label %10

10:                                               ; preds = %6, %9
  %11 = tail call i32 @pthread_mutex_unlock(ptr noundef nonnull @shutdown_threads.shutdown_mutex) #14
  %.not32 = icmp eq i32 %11, 0
  br i1 %.not32, label %81, label %12

12:                                               ; preds = %10
  %13 = tail call ptr @__errno_location() #18
  store i32 %11, ptr %13, align 4
  tail call void (ptr, ...) @fatal_abort(ptr noundef nonnull @.str.23, ptr noundef nonnull @__func__.shutdown_threads) #16
  unreachable

14:                                               ; preds = %4
  %15 = tail call i64 @time(ptr noundef null) #14
  store i64 %15, ptr @shutdown_time, align 8
  %16 = tail call i32 @pthread_mutex_unlock(ptr noundef nonnull @shutdown_threads.shutdown_mutex) #14
  %.not24 = icmp eq i32 %16, 0
  br i1 %.not24, label %19, label %17

17:                                               ; preds = %14
  %18 = tail call ptr @__errno_location() #18
  store i32 %16, ptr %18, align 4
  tail call void (ptr, ...) @fatal_abort(ptr noundef nonnull @.str.23, ptr noundef nonnull @__func__.shutdown_threads) #16
  unreachable

19:                                               ; preds = %14
  %20 = load i64, ptr @commit_handler_thread, align 8
  %.not25 = icmp eq i64 %20, 0
  br i1 %.not25, label %38, label %21

21:                                               ; preds = %19
  %22 = tail call i32 @pthread_mutex_trylock(ptr noundef nonnull @registered_lock) #14
  %23 = icmp eq i32 %22, 16
  br i1 %23, label %24, label %32

24:                                               ; preds = %21
  %25 = tail call i32 @get_log_level() #14
  %26 = icmp sgt i32 %25, 4
  br i1 %26, label %27, label %28

27:                                               ; preds = %24
  tail call void (i32, ptr, ...) @log_var(i32 noundef 5, ptr noundef nonnull @.str.25) #14
  br label %28

28:                                               ; preds = %24, %27
  %29 = tail call i32 @pthread_mutex_lock(ptr noundef nonnull @registered_lock) #14
  %.not26 = icmp eq i32 %29, 0
  br i1 %.not26, label %32, label %30

30:                                               ; preds = %28
  %31 = tail call ptr @__errno_location() #18
  store i32 %29, ptr %31, align 4
  tail call void (ptr, ...) @fatal_abort(ptr noundef nonnull @.str.22, ptr noundef nonnull @__func__.shutdown_threads) #16
  unreachable

32:                                               ; preds = %28, %21
  %33 = load i64, ptr @commit_handler_thread, align 8
  %34 = tail call i32 @pthread_cancel(i64 noundef %33) #14
  %35 = tail call i32 @pthread_mutex_unlock(ptr noundef nonnull @registered_lock) #14
  %.not27 = icmp eq i32 %35, 0
  br i1 %.not27, label %38, label %36

36:                                               ; preds = %32
  %37 = tail call ptr @__errno_location() #18
  store i32 %35, ptr %37, align 4
  tail call void (ptr, ...) @fatal_abort(ptr noundef nonnull @.str.23, ptr noundef nonnull @__func__.shutdown_threads) #16
  unreachable

38:                                               ; preds = %32, %19
  tail call void @rpc_mgr_wake() #14
  %39 = load i64, ptr @rollup_handler_thread, align 8
  %.not28 = icmp eq i64 %39, 0
  br i1 %.not28, label %80, label %40

40:                                               ; preds = %38
  %41 = tail call i32 @pthread_mutex_trylock(ptr noundef nonnull @rollup_lock) #14
  %42 = icmp eq i32 %41, 16
  br i1 %42, label %43, label %62

43:                                               ; preds = %40
  %44 = load i8, ptr @backup, align 1, !range !11, !noundef !12
  %45 = trunc nuw i8 %44 to i1
  br i1 %45, label %46, label %54

46:                                               ; preds = %43
  %47 = load i8, ptr @primary_resumed, align 1, !range !11, !noundef !12
  %48 = trunc nuw i8 %47 to i1
  br i1 %48, label %49, label %54

49:                                               ; preds = %46
  %50 = tail call i32 @get_log_level() #14
  %51 = icmp sgt i32 %50, 4
  br i1 %51, label %52, label %53

52:                                               ; preds = %49
  tail call void (i32, ptr, ...) @log_var(i32 noundef 5, ptr noundef nonnull @.str.26) #14
  br label %53

53:                                               ; preds = %52, %49
  store i1 true, ptr @restart_backup, align 1
  br label %62

54:                                               ; preds = %46, %43
  %55 = tail call i32 @get_log_level() #14
  %56 = icmp sgt i32 %55, 4
  br i1 %56, label %57, label %58

57:                                               ; preds = %54
  tail call void (i32, ptr, ...) @log_var(i32 noundef 5, ptr noundef nonnull @.str.27) #14
  br label %58

58:                                               ; preds = %54, %57
  %59 = tail call i32 @pthread_mutex_lock(ptr noundef nonnull @rollup_lock) #14
  %.not29 = icmp eq i32 %59, 0
  br i1 %.not29, label %62, label %60

60:                                               ; preds = %58
  %61 = tail call ptr @__errno_location() #18
  store i32 %59, ptr %61, align 4
  tail call void (ptr, ...) @fatal_abort(ptr noundef nonnull @.str.22, ptr noundef nonnull @__func__.shutdown_threads) #16
  unreachable

62:                                               ; preds = %58, %53, %40
  %63 = load i8, ptr @backup, align 1, !range !11, !noundef !12
  %64 = trunc nuw i8 %63 to i1
  br i1 %64, label %65, label %71

65:                                               ; preds = %62
  %66 = load i8, ptr @primary_resumed, align 1, !range !11, !noundef !12
  %67 = trunc nuw i8 %66 to i1
  br i1 %67, label %68, label %71

68:                                               ; preds = %65
  %69 = load i64, ptr @rollup_handler_thread, align 8
  %70 = tail call i32 @pthread_cancel(i64 noundef %69) #14
  br label %76

71:                                               ; preds = %62, %65
  %72 = tail call i32 @pthread_cond_signal(ptr noundef nonnull @rollup_handler_cond) #14
  %.not30 = icmp eq i32 %72, 0
  br i1 %.not30, label %76, label %73

73:                                               ; preds = %71
  %74 = tail call ptr @__errno_location() #18
  store i32 %72, ptr %74, align 4
  %75 = tail call i32 (ptr, ...) @error(ptr noundef nonnull @.str.28, ptr noundef nonnull @.str.29, i32 noundef 526, ptr noundef nonnull @__func__.shutdown_threads) #14
  br label %76

76:                                               ; preds = %71, %73, %68
  %77 = tail call i32 @pthread_mutex_unlock(ptr noundef nonnull @rollup_lock) #14
  %.not31 = icmp eq i32 %77, 0
  br i1 %.not31, label %80, label %78

78:                                               ; preds = %76
  %79 = tail call ptr @__errno_location() #18
  store i32 %77, ptr %79, align 4
  tail call void (ptr, ...) @fatal_abort(ptr noundef nonnull @.str.23, ptr noundef nonnull @__func__.shutdown_threads) #16
  unreachable

80:                                               ; preds = %76, %38
  tail call void @conmgr_request_shutdown() #14
  br label %81

81:                                               ; preds = %10, %80
  ret void
}